; Function Attrs: mustprogress uwtable
define noundef nonnull ptr @_ZN7rocksdb19WriteBatchWithIndex19NewIteratorWithBaseEPNS_8IteratorE(ptr noundef nonnull readonly align 8 captures(none) dereferenceable(16) %0, ptr noundef %1) local_unnamed_addr #4 align 2 personality ptr @__gxx_personality_v0 {
  %3 = tail call noalias noundef nonnull dereferenceable(72) ptr @_Znwm(i64 noundef 72) #27
  %4 = getelementptr inbounds nuw i8, ptr %0, i64 8
  %5 = load ptr, ptr %4, align 8, !tbaa !202
  %6 = getelementptr inbounds nuw i8, ptr %5, i64 2496
  %7 = getelementptr inbounds nuw i8, ptr %5, i64 160
  store ptr getelementptr inbounds nuw inrange(-16, 104) (i8, ptr @_ZTVN7rocksdb16WBWIIteratorImplE, i64 16), ptr %3, align 8, !tbaa !88
  %8 = getelementptr inbounds nuw i8, ptr %3, i64 8
  store i32 0, ptr %8, align 8, !tbaa !90
  %9 = getelementptr inbounds nuw i8, ptr %3, i64 16
  store ptr %6, ptr %9, align 8, !tbaa !95
  %10 = getelementptr inbounds nuw i8, ptr %3, i64 24
  store ptr null, ptr %10, align 8, !tbaa !96
  %11 = getelementptr inbounds nuw i8, ptr %3, i64 32
  store ptr %5, ptr %11, align 8, !tbaa !97
  %12 = getelementptr inbounds nuw i8, ptr %3, i64 40
  store ptr %7, ptr %12, align 8, !tbaa !98
  %13 = getelementptr inbounds nuw i8, ptr %3, i64 48
  tail call void @llvm.memset.p0.i64(ptr noundef nonnull align 8 dereferenceable(17) %13, i8 0, i64 17, i1 false)
  %14 = tail call noalias noundef nonnull dereferenceable(200) ptr @_Znwm(i64 noundef 200) #27
  %15 = load ptr, ptr %7, align 8, !tbaa !204
  invoke void @_ZN7rocksdb17BaseDeltaIteratorC1EPNS_18ColumnFamilyHandleEPNS_8IteratorEPNS_16WBWIIteratorImplEPKNS_10ComparatorEPKNS_11ReadOptionsE(ptr noundef nonnull align 8 dereferenceable(200) %14, ptr noundef null, ptr noundef %1, ptr noundef nonnull %3, ptr noundef %15, ptr noundef null)
          to label %16 unwind label %17

16:                                               ; preds = %2
  ret ptr %14

17:                                               ; preds = %2
  %18 = landingpad { ptr, i32 }
          cleanup
  tail call void @_ZdlPvm(ptr noundef nonnull %14, i64 noundef 200) #25
  resume { ptr, i32 } %18
}